target datalayout = "e-m:e-p270:32:32-p271:32:32-p272:64:64-i64:64-i128:128-f80:128-n8:16:32:64-S128"
target triple = "x86_64-pc-linux-gnu"

%"class.polynomial::cache" = type { ptr }
%"struct.polynomial::poly_hash_proc" = type { ptr }
%"struct.polynomial::poly_eq_proc" = type { ptr }
%"struct.polynomial::cache::imp" = type { ptr, %class.chashtable, %class.chashtable.0, %class.chashtable.1, %class.ref_vector, %class.svector, ptr }
%class.chashtable = type { %"struct.polynomial::poly_hash_proc", %"struct.polynomial::poly_eq_proc", ptr, i32, i32, i32, i32, i32, i32, i32, ptr, ptr, ptr }
%class.chashtable.0 = type { ptr, i32, i32, i32, i32, i32, i32, i32, ptr, ptr, ptr }
%class.chashtable.1 = type { ptr, i32, i32, i32, i32, i32, i32, i32, ptr, ptr, ptr }
%class.ref_vector = type { %class.ref_vector_core }
%class.ref_vector_core = type { %class.ref_manager_wrapper, %class.ptr_vector }
%class.ref_manager_wrapper = type { ptr }
%class.ptr_vector = type { %class.vector }
%class.vector = type { ptr }
%class.svector = type { %class.vector.2 }
%class.vector.2 = type { ptr }

; Function Attrs: mustprogress uwtable
define linkonce_odr hidden void @_Z7deallocIN10polynomial5cache3impEEvPT_(ptr noundef %0) #4 comdat {
  %2 = alloca ptr, align 8
  store ptr %0, ptr %2, align 8, !tbaa !13
  %3 = load ptr, ptr %2, align 8, !tbaa !13
  %4 = icmp eq ptr %3, null
  br i1 %4, label %5, label %6

5:                                                ; preds = %1
  br label %9

6:                                                ; preds = %1
  %7 = load ptr, ptr %2, align 8, !tbaa !13
  call void @_ZN10polynomial5cache3impD2Ev(ptr noundef nonnull align 8 dereferenceable(248) %7) #3
  %8 = load ptr, ptr %2, align 8, !tbaa !13
  call void @_ZN6memory10deallocateEPv(ptr noundef %8)
  br label %9

9:                                                ; preds = %6, %5
  ret void
}

; Function Attrs: mustprogress nounwind uwtable
define hidden noundef nonnull align 8 dereferenceable(8) ptr @_ZNK10polynomial5cache1mEv(ptr noundef nonnull align 8 dereferenceable(8) %0) #5 align 2 {
  %2 = alloca ptr, align 8
  store ptr %0, ptr %2, align 8, !tbaa !3
  %3 = load ptr, ptr %2, align 8
  %4 = getelementptr inbounds nuw %"class.polynomial::cache", ptr %3, i32 0, i32 0
  %5 = load ptr, ptr %4, align 8, !tbaa !10
  %6 = getelementptr inbounds nuw %"struct.polynomial::cache::imp", ptr %5, i32 0, i32 0
  %7 = load ptr, ptr %6, align 8, !tbaa !14
  ret ptr %7
}

; Function Attrs: mustprogress uwtable
define hidden void @_ZN10polynomial5cache5resetEv(ptr noundef nonnull align 8 dereferenceable(8) %0) #4 align 2 {
  %2 = alloca ptr, align 8
  %3 = alloca ptr, align 8
  store ptr %0, ptr %2, align 8, !tbaa !3
  %4 = load ptr, ptr %2, align 8
  call void @llvm.lifetime.start.p0(i64 8, ptr %3) #3
  %5 = call noundef nonnull align 8 dereferenceable(8) ptr @_ZNK10polynomial5cache1mEv(ptr noundef nonnull align 8 dereferenceable(8) %4)
  store ptr %5, ptr %3, align 8, !tbaa !8
  %6 = getelementptr inbounds nuw %"class.polynomial::cache", ptr %4, i32 0, i32 0
  %7 = load ptr, ptr %6, align 8, !tbaa !10
  call void @_Z7deallocIN10polynomial5cache3impEEvPT_(ptr noundef %7)
  %8 = call noalias noundef ptr @_ZN6memory8allocateEm(i64 noundef 248)
  %9 = load ptr, ptr %3, align 8, !tbaa !8
  call void @_ZN10polynomial5cache3impC2ERNS_7managerE(ptr noundef nonnull align 8 dereferenceable(248) %8, ptr noundef nonnull align 8 dereferenceable(8) %9)
  %10 = getelementptr inbounds nuw %"class.polynomial::cache", ptr %4, i32 0, i32 0
  store ptr %8, ptr %10, align 8, !tbaa !10
  call void @llvm.lifetime.end.p0(i64 8, ptr %3) #3
  ret void
}