; Function Attrs: mustprogress uwtable
define hidden void @_ZN10polynomial5cache5resetEv(ptr noundef nonnull align 8 captures(none) dereferenceable(8) %0) local_unnamed_addr #3 align 2 {
_Z7deallocIN10polynomial5cache3impEEvPT_.exit:
  %1 = load ptr, ptr %0, align 8, !tbaa !3
  %2 = load ptr, ptr %1, align 8, !tbaa !60
  tail call void @_ZN10polynomial5cache3impD2Ev(ptr noundef nonnull align 8 dereferenceable(248) %1) #19
  tail call void @_ZN6memory10deallocateEPv(ptr noundef nonnull %1)
  %3 = tail call noalias noundef ptr @_ZN6memory8allocateEm(i64 noundef 248)
  tail call void @_ZN10polynomial5cache3impC2ERNS_7managerE(ptr noundef nonnull align 8 dereferenceable(248) %3, ptr noundef nonnull align 8 dereferenceable(8) %2)
  store ptr %3, ptr %0, align 8, !tbaa !3
  ret void
}